target datalayout = "e-m:e-p270:32:32-p271:32:32-p272:64:64-i64:64-i128:128-f80:128-n8:16:32:64-S128"
target triple = "x86_64-pc-linux-gnu"

%struct.jzfile = type { ptr, i32, i64, ptr, i64, i64, i8, i8, %struct.cencache, i32, ptr, ptr, i32, ptr, ptr, i32, ptr, i32, ptr, ptr, ptr, i32, i32, i64, i64 }
%struct.cencache = type { ptr, i64 }
%struct.jzentry = type { ptr, i64, i64, i64, i32, ptr, ptr, i64, i32, i32 }

; Function Attrs: nounwind uwtable
define internal void @freeMetaNames(ptr noundef %0) #0 {
  %2 = alloca ptr, align 8
  %3 = alloca i32, align 4
  store ptr %0, ptr %2, align 8
  %4 = load ptr, ptr %2, align 8
  %5 = getelementptr inbounds %struct.jzfile, ptr %4, i32 0, i32 20
  %6 = load ptr, ptr %5, align 8
  %7 = icmp ne ptr %6, null
  br i1 %7, label %8, label %32

8:                                                ; preds = %1
  store i32 0, ptr %3, align 4
  br label %9

9:                                                ; preds = %23, %8
  %10 = load i32, ptr %3, align 4
  %11 = load ptr, ptr %2, align 8
  %12 = getelementptr inbounds %struct.jzfile, ptr %11, i32 0, i32 22
  %13 = load i32, ptr %12, align 4
  %14 = icmp slt i32 %10, %13
  br i1 %14, label %15, label %26

15:                                               ; preds = %9
  %16 = load ptr, ptr %2, align 8
  %17 = getelementptr inbounds %struct.jzfile, ptr %16, i32 0, i32 20
  %18 = load ptr, ptr %17, align 8
  %19 = load i32, ptr %3, align 4
  %20 = sext i32 %19 to i64
  %21 = getelementptr inbounds ptr, ptr %18, i64 %20
  %22 = load ptr, ptr %21, align 8
  call void @free(ptr noundef %22) #11
  br label %23

23:                                               ; preds = %15
  %24 = load i32, ptr %3, align 4
  %25 = add nsw i32 %24, 1
  store i32 %25, ptr %3, align 4
  br label %9, !llvm.loop !20

26:                                               ; preds = %9
  %27 = load ptr, ptr %2, align 8
  %28 = getelementptr inbounds %struct.jzfile, ptr %27, i32 0, i32 20
  %29 = load ptr, ptr %28, align 8
  call void @free(ptr noundef %29) #11
  %30 = load ptr, ptr %2, align 8
  %31 = getelementptr inbounds %struct.jzfile, ptr %30, i32 0, i32 20
  store ptr null, ptr %31, align 8
  br label %32

32:                                               ; preds = %26, %1
  ret void
}

; Function Attrs: nounwind uwtable
define hidden void @ZIP_Unlock(ptr noundef %0) #0 {
  %2 = alloca ptr, align 8
  store ptr %0, ptr %2, align 8
  %3 = load ptr, ptr %2, align 8
  %4 = getelementptr inbounds %struct.jzfile, ptr %3, i32 0, i32 10
  %5 = load ptr, ptr %4, align 8
  call void @JVM_RawMonitorExit(ptr noundef %5)
  ret void
}

; Function Attrs: nounwind uwtable
define hidden void @ZIP_Lock(ptr noundef %0) #0 {
  %2 = alloca ptr, align 8
  store ptr %0, ptr %2, align 8
  %3 = load ptr, ptr %2, align 8
  %4 = getelementptr inbounds %struct.jzfile, ptr %3, i32 0, i32 10
  %5 = load ptr, ptr %4, align 8
  %6 = call i32 @JVM_RawMonitorEnter(ptr noundef %5)
  ret void
}

; Function Attrs: nounwind uwtable
define internal void @ZFILE_Close(i32 noundef %0) #0 {
  %2 = alloca i32, align 4
  store i32 %0, ptr %2, align 4
  %3 = load i32, ptr %2, align 4
  %4 = call i32 @close(i32 noundef %3)
  ret void
}

; Function Attrs: nounwind uwtable
define internal void @freeCEN(ptr noundef %0) #0 {
  %2 = alloca ptr, align 8
  store ptr %0, ptr %2, align 8
  %3 = load ptr, ptr %2, align 8
  %4 = getelementptr inbounds %struct.jzfile, ptr %3, i32 0, i32 14
  %5 = load ptr, ptr %4, align 8
  call void @free(ptr noundef %5) #11
  %6 = load ptr, ptr %2, align 8
  %7 = getelementptr inbounds %struct.jzfile, ptr %6, i32 0, i32 14
  store ptr null, ptr %7, align 8
  %8 = load ptr, ptr %2, align 8
  %9 = getelementptr inbounds %struct.jzfile, ptr %8, i32 0, i32 16
  %10 = load ptr, ptr %9, align 8
  call void @free(ptr noundef %10) #11
  %11 = load ptr, ptr %2, align 8
  %12 = getelementptr inbounds %struct.jzfile, ptr %11, i32 0, i32 16
  store ptr null, ptr %12, align 8
  %13 = load ptr, ptr %2, align 8
  call void @freeMetaNames(ptr noundef %13)
  ret void
}

; Function Attrs: nounwind uwtable
define hidden void @ZIP_FreeEntry(ptr noundef %0, ptr noundef %1) #0 {
  %3 = alloca ptr, align 8
  %4 = alloca ptr, align 8
  %5 = alloca ptr, align 8
  store ptr %0, ptr %3, align 8
  store ptr %1, ptr %4, align 8
  %6 = load ptr, ptr %3, align 8
  call void @ZIP_Lock(ptr noundef %6)
  %7 = load ptr, ptr %3, align 8
  %8 = getelementptr inbounds %struct.jzfile, ptr %7, i32 0, i32 19
  %9 = load ptr, ptr %8, align 8
  store ptr %9, ptr %5, align 8
  %10 = load ptr, ptr %4, align 8
  %11 = load ptr, ptr %3, align 8
  %12 = getelementptr inbounds %struct.jzfile, ptr %11, i32 0, i32 19
  store ptr %10, ptr %12, align 8
  %13 = load ptr, ptr %3, align 8
  call void @ZIP_Unlock(ptr noundef %13)
  %14 = load ptr, ptr %5, align 8
  %15 = icmp ne ptr %14, null
  br i1 %15, label %16, label %27

16:                                               ; preds = %2
  %17 = load ptr, ptr %5, align 8
  %18 = getelementptr inbounds %struct.jzentry, ptr %17, i32 0, i32 0
  %19 = load ptr, ptr %18, align 8
  call void @free(ptr noundef %19) #11
  %20 = load ptr, ptr %5, align 8
  %21 = getelementptr inbounds %struct.jzentry, ptr %20, i32 0, i32 6
  %22 = load ptr, ptr %21, align 8
  call void @free(ptr noundef %22) #11
  %23 = load ptr, ptr %5, align 8
  %24 = getelementptr inbounds %struct.jzentry, ptr %23, i32 0, i32 5
  %25 = load ptr, ptr %24, align 8
  call void @free(ptr noundef %25) #11
  %26 = load ptr, ptr %5, align 8
  call void @free(ptr noundef %26) #11
  br label %27

27:                                               ; preds = %16, %2
  ret void
}

; Function Attrs: nounwind uwtable
define internal void @freeZip(ptr noundef %0) #0 {
  %2 = alloca ptr, align 8
  store ptr %0, ptr %2, align 8
  %3 = load ptr, ptr %2, align 8
  call void @ZIP_FreeEntry(ptr noundef %3, ptr noundef null)
  %4 = load ptr, ptr %2, align 8
  %5 = getelementptr inbounds %struct.jzfile, ptr %4, i32 0, i32 10
  %6 = load ptr, ptr %5, align 8
  %7 = icmp ne ptr %6, null
  br i1 %7, label %8, label %12

8:                                                ; preds = %1
  %9 = load ptr, ptr %2, align 8
  %10 = getelementptr inbounds %struct.jzfile, ptr %9, i32 0, i32 10
  %11 = load ptr, ptr %10, align 8
  call void @JVM_RawMonitorDestroy(ptr noundef %11)
  br label %12

12:                                               ; preds = %8, %1
  %13 = load ptr, ptr %2, align 8
  %14 = getelementptr inbounds %struct.jzfile, ptr %13, i32 0, i32 0
  %15 = load ptr, ptr %14, align 8
  call void @free(ptr noundef %15) #11
  %16 = load ptr, ptr %2, align 8
  call void @freeCEN(ptr noundef %16)
  %17 = load ptr, ptr %2, align 8
  %18 = getelementptr inbounds %struct.jzfile, ptr %17, i32 0, i32 6
  %19 = load i8, ptr %18, align 8
  %20 = icmp ne i8 %19, 0
  br i1 %20, label %21, label %35

21:                                               ; preds = %12
  %22 = load ptr, ptr %2, align 8
  %23 = getelementptr inbounds %struct.jzfile, ptr %22, i32 0, i32 3
  %24 = load ptr, ptr %23, align 8
  %25 = icmp ne ptr %24, null
  br i1 %25, label %26, label %34

26:                                               ; preds = %21
  %27 = load ptr, ptr %2, align 8
  %28 = getelementptr inbounds %struct.jzfile, ptr %27, i32 0, i32 3
  %29 = load ptr, ptr %28, align 8
  %30 = load ptr, ptr %2, align 8
  %31 = getelementptr inbounds %struct.jzfile, ptr %30, i32 0, i32 4
  %32 = load i64, ptr %31, align 8
  %33 = call i32 @munmap(ptr noundef %29, i64 noundef %32) #11
  br label %34

34:                                               ; preds = %26, %21
  br label %40

35:                                               ; preds = %12
  %36 = load ptr, ptr %2, align 8
  %37 = getelementptr inbounds %struct.jzfile, ptr %36, i32 0, i32 8
  %38 = getelementptr inbounds %struct.cencache, ptr %37, i32 0, i32 0
  %39 = load ptr, ptr %38, align 8
  call void @free(ptr noundef %39) #11
  br label %40

40:                                               ; preds = %35, %34
  %41 = load ptr, ptr %2, align 8
  %42 = getelementptr inbounds %struct.jzfile, ptr %41, i32 0, i32 11
  %43 = load ptr, ptr %42, align 8
  %44 = icmp ne ptr %43, null
  br i1 %44, label %45, label %49

45:                                               ; preds = %40
  %46 = load ptr, ptr %2, align 8
  %47 = getelementptr inbounds %struct.jzfile, ptr %46, i32 0, i32 11
  %48 = load ptr, ptr %47, align 8
  call void @free(ptr noundef %48) #11
  br label %49

49:                                               ; preds = %45, %40
  %50 = load ptr, ptr %2, align 8
  %51 = getelementptr inbounds %struct.jzfile, ptr %50, i32 0, i32 9
  %52 = load i32, ptr %51, align 8
  %53 = icmp ne i32 %52, -1
  br i1 %53, label %54, label %58

54:                                               ; preds = %49
  %55 = load ptr, ptr %2, align 8
  %56 = getelementptr inbounds %struct.jzfile, ptr %55, i32 0, i32 9
  %57 = load i32, ptr %56, align 8
  call void @ZFILE_Close(i32 noundef %57)
  br label %58

58:                                               ; preds = %54, %49
  %59 = load ptr, ptr %2, align 8
  call void @free(ptr noundef %59) #11
  ret void
}