; Function Attrs: nounwind uwtable
define internal fastcc void @freeZip(ptr nocapture noundef %0) unnamed_addr #0 {
  %2 = getelementptr inbounds i8, ptr %0, i64 80
  %3 = load ptr, ptr %2, align 8
  %4 = tail call i32 @JVM_RawMonitorEnter(ptr noundef %3) #21
  %5 = getelementptr inbounds i8, ptr %0, i64 152
  %6 = load ptr, ptr %5, align 8
  store ptr null, ptr %5, align 8
  %7 = load ptr, ptr %2, align 8
  tail call void @JVM_RawMonitorExit(ptr noundef %7) #21
  %.not.i = icmp eq ptr %6, null
  br i1 %.not.i, label %ZIP_FreeEntry.exit, label %8

8:                                                ; preds = %1
  %9 = load ptr, ptr %6, align 8
  tail call void @free(ptr noundef %9) #21
  %10 = getelementptr inbounds i8, ptr %6, i64 48
  %11 = load ptr, ptr %10, align 8
  tail call void @free(ptr noundef %11) #21
  %12 = getelementptr inbounds i8, ptr %6, i64 40
  %13 = load ptr, ptr %12, align 8
  tail call void @free(ptr noundef %13) #21
  tail call void @free(ptr noundef nonnull %6) #21
  br label %ZIP_FreeEntry.exit

ZIP_FreeEntry.exit:                               ; preds = %1, %8
  %14 = load ptr, ptr %2, align 8
  %.not = icmp eq ptr %14, null
  br i1 %.not, label %16, label %15

15:                                               ; preds = %ZIP_FreeEntry.exit
  tail call void @JVM_RawMonitorDestroy(ptr noundef nonnull %14) #21
  br label %16

16:                                               ; preds = %15, %ZIP_FreeEntry.exit
  %17 = load ptr, ptr %0, align 8
  tail call void @free(ptr noundef %17) #21
  %18 = getelementptr inbounds i8, ptr %0, i64 112
  %19 = load ptr, ptr %18, align 8
  tail call void @free(ptr noundef %19) #21
  store ptr null, ptr %18, align 8
  %20 = getelementptr inbounds i8, ptr %0, i64 128
  %21 = load ptr, ptr %20, align 8
  tail call void @free(ptr noundef %21) #21
  store ptr null, ptr %20, align 8
  %22 = getelementptr inbounds i8, ptr %0, i64 160
  %23 = load ptr, ptr %22, align 8
  %.not.i.i = icmp eq ptr %23, null
  br i1 %.not.i.i, label %freeCEN.exit, label %.preheader.i.i

.preheader.i.i:                                   ; preds = %16
  %24 = getelementptr inbounds i8, ptr %0, i64 172
  %25 = load i32, ptr %24, align 4
  %26 = icmp sgt i32 %25, 0
  br i1 %26, label %.lr.ph.i.i, label %._crit_edge.i.i

.lr.ph.i.i:                                       ; preds = %.preheader.i.i, %.lr.ph.i.i
  %indvars.iv.i.i = phi i64 [ %indvars.iv.next.i.i, %.lr.ph.i.i ], [ 0, %.preheader.i.i ]
  %27 = load ptr, ptr %22, align 8
  %28 = getelementptr inbounds ptr, ptr %27, i64 %indvars.iv.i.i
  %29 = load ptr, ptr %28, align 8
  tail call void @free(ptr noundef %29) #21
  %indvars.iv.next.i.i = add nuw nsw i64 %indvars.iv.i.i, 1
  %30 = load i32, ptr %24, align 4
  %31 = sext i32 %30 to i64
  %32 = icmp slt i64 %indvars.iv.next.i.i, %31
  br i1 %32, label %.lr.ph.i.i, label %._crit_edge.loopexit.i.i, !llvm.loop !9

._crit_edge.loopexit.i.i:                         ; preds = %.lr.ph.i.i
  %.pre.i.i = load ptr, ptr %22, align 8
  br label %._crit_edge.i.i

._crit_edge.i.i:                                  ; preds = %._crit_edge.loopexit.i.i, %.preheader.i.i
  %33 = phi ptr [ %.pre.i.i, %._crit_edge.loopexit.i.i ], [ %23, %.preheader.i.i ]
  tail call void @free(ptr noundef %33) #21
  store ptr null, ptr %22, align 8
  br label %freeCEN.exit

freeCEN.exit:                                     ; preds = %16, %._crit_edge.i.i
  %34 = getelementptr inbounds i8, ptr %0, i64 48
  %35 = load i8, ptr %34, align 8
  %.not18 = icmp eq i8 %35, 0
  br i1 %.not18, label %43, label %36

36:                                               ; preds = %freeCEN.exit
  %37 = getelementptr inbounds i8, ptr %0, i64 24
  %38 = load ptr, ptr %37, align 8
  %.not19 = icmp eq ptr %38, null
  br i1 %.not19, label %46, label %39

39:                                               ; preds = %36
  %40 = getelementptr inbounds i8, ptr %0, i64 32
  %41 = load i64, ptr %40, align 8
  %42 = tail call i32 @munmap(ptr noundef nonnull %38, i64 noundef %41) #21
  br label %46

43:                                               ; preds = %freeCEN.exit
  %44 = getelementptr inbounds i8, ptr %0, i64 56
  %45 = load ptr, ptr %44, align 8
  tail call void @free(ptr noundef %45) #21
  br label %46

46:                                               ; preds = %36, %39, %43
  %47 = getelementptr inbounds i8, ptr %0, i64 88
  %48 = load ptr, ptr %47, align 8
  %.not20 = icmp eq ptr %48, null
  br i1 %.not20, label %50, label %49

49:                                               ; preds = %46
  tail call void @free(ptr noundef nonnull %48) #21
  br label %50

50:                                               ; preds = %49, %46
  %51 = getelementptr inbounds i8, ptr %0, i64 72
  %52 = load i32, ptr %51, align 8
  %.not21 = icmp eq i32 %52, -1
  br i1 %.not21, label %55, label %53

53:                                               ; preds = %50
  %54 = tail call i32 @close(i32 noundef %52) #21
  br label %55

55:                                               ; preds = %53, %50
  tail call void @free(ptr noundef nonnull %0) #21
  ret void
}